; Function Attrs: mustprogress noreturn uwtable
define internal fastcc void @_ZN32pxrInternal_v0_24__pxrReserved__12_GLOBAL__N_116_ThrowParseErrorIN21PXR_INTERNAL_NS_pegtl12memory_inputILNS2_13tracking_modeE0ENS2_5ascii3eol7lf_crlfENSt7__cxx1112basic_stringIcSt11char_traitsIcESaIcEEEEEEEvRKT_RKSD_(ptr noundef nonnull align 8 dereferenceable(88) %0, ptr noundef nonnull align 8 dereferenceable(32) %1) unnamed_addr #10 personality ptr @__gxx_personality_v0 {
  %3 = tail call ptr @__cxa_allocate_exception(i64 32) #25
  invoke void @_ZN21PXR_INTERNAL_NS_pegtl11parse_errorC2INS_12memory_inputILNS_13tracking_modeE0ENS_5ascii3eol7lf_crlfENSt7__cxx1112basic_stringIcSt11char_traitsIcESaIcEEEEEEERKSC_RKT_(ptr noundef nonnull align 8 dereferenceable(32) %3, ptr noundef nonnull align 8 dereferenceable(32) %1, ptr noundef nonnull align 8 dereferenceable(88) %0)
          to label %4 unwind label %5

4:                                                ; preds = %2
  tail call void @__cxa_throw(ptr nonnull %3, ptr nonnull @_ZTIN21PXR_INTERNAL_NS_pegtl11parse_errorE, ptr nonnull @_ZN21PXR_INTERNAL_NS_pegtl11parse_errorD2Ev) #24
  unreachable

5:                                                ; preds = %2
  %6 = landingpad { ptr, i32 }
          cleanup
  tail call void @__cxa_free_exception(ptr %3) #25
  resume { ptr, i32 } %6
}